target datalayout = "e-m:e-p270:32:32-p271:32:32-p272:64:64-i64:64-i128:128-f80:128-n8:16:32:64-S128"
target triple = "x86_64-pc-linux-gnu"

%"class.google::protobuf::internal::ExplicitlyConstructed.8" = type { %"union.google::protobuf::internal::ExplicitlyConstructed<std::__cxx11::basic_string<char>>::AlignedUnion" }
%"union.google::protobuf::internal::ExplicitlyConstructed<std::__cxx11::basic_string<char>>::AlignedUnion" = type { i64, [24 x i8] }
%"class.google::protobuf::MessageLite" = type { ptr, %"class.google::protobuf::internal::InternalMetadata" }
%"class.google::protobuf::internal::InternalMetadata" = type { ptr }
%"class.google::protobuf::internal::HasBits" = type { [1 x i32] }
%"class.google::protobuf::internal::CachedSize" = type { %"struct.std::atomic" }
%"struct.std::atomic" = type { %"struct.std::__atomic_base" }
%"struct.std::__atomic_base" = type { i32 }
%"class.google::protobuf::internal::RepeatedPtrFieldBase" = type { ptr, i32, i32, ptr }
%"struct.google::protobuf::internal::ArenaStringPtr" = type { ptr }
%"struct.google::protobuf::internal::SCCInfoBase" = type { %"struct.std::atomic", i32, i32, ptr }
%"class.i18n::phonenumbers::PhoneMetadata" = type <{ %"class.google::protobuf::MessageLite", %"class.google::protobuf::internal::HasBits", %"class.google::protobuf::internal::CachedSize", %"class.google::protobuf::RepeatedPtrField.5", %"class.google::protobuf::RepeatedPtrField.5", %"struct.google::protobuf::internal::ArenaStringPtr", %"struct.google::protobuf::internal::ArenaStringPtr", %"struct.google::protobuf::internal::ArenaStringPtr", %"struct.google::protobuf::internal::ArenaStringPtr", %"struct.google::protobuf::internal::ArenaStringPtr", %"struct.google::protobuf::internal::ArenaStringPtr", %"struct.google::protobuf::internal::ArenaStringPtr", %"struct.google::protobuf::internal::ArenaStringPtr", ptr, ptr, ptr, ptr, ptr, ptr, ptr, ptr, ptr, ptr, ptr, ptr, ptr, ptr, ptr, ptr, ptr, i32, i8, i8, i8, i8 }>
%"class.google::protobuf::RepeatedPtrField.5" = type { %"class.google::protobuf::internal::RepeatedPtrFieldBase" }

@_ZTVN6google8protobuf11MessageLiteE = external unnamed_addr constant { [16 x ptr] }, align 8
@_ZN6google8protobuf8internal26fixed_address_empty_stringB5cxx11E = external global %"class.google::protobuf::internal::ExplicitlyConstructed.8", align 8

; Function Attrs: mustprogress nounwind uwtable
define linkonce_odr dso_local noundef nonnull align 8 dereferenceable(32) ptr @_ZNK6google8protobuf8internal21ExplicitlyConstructedINSt7__cxx1112basic_stringIcSt11char_traitsIcESaIcEEEE3getEv(ptr noundef nonnull align 8 dereferenceable(32) %0) #5 comdat align 2 {
  %2 = alloca ptr, align 8
  store ptr %0, ptr %2, align 8
  %3 = load ptr, ptr %2, align 8
  %4 = getelementptr inbounds %"class.google::protobuf::internal::ExplicitlyConstructed.8", ptr %3, i32 0, i32 0
  ret ptr %4
}

; Function Attrs: mustprogress nounwind uwtable
define linkonce_odr dso_local noundef i32 @_ZStanSt12memory_orderSt23__memory_order_modifier(i32 noundef %0, i32 noundef %1) #5 comdat {
  %3 = alloca i32, align 4
  %4 = alloca i32, align 4
  store i32 %0, ptr %3, align 4
  store i32 %1, ptr %4, align 4
  %5 = load i32, ptr %3, align 4
  %6 = load i32, ptr %4, align 4
  %7 = and i32 %5, %6
  ret i32 %7
}

; Function Attrs: mustprogress nounwind uwtable
define linkonce_odr dso_local void @_ZNSt13__atomic_baseIiEC2Ei(ptr noundef nonnull align 4 dereferenceable(4) %0, i32 noundef %1) unnamed_addr #5 comdat align 2 {
  %3 = alloca ptr, align 8
  %4 = alloca i32, align 4
  store ptr %0, ptr %3, align 8
  store i32 %1, ptr %4, align 4
  %5 = load ptr, ptr %3, align 8
  %6 = getelementptr inbounds %"struct.std::__atomic_base", ptr %5, i32 0, i32 0
  %7 = load i32, ptr %4, align 4
  store i32 %7, ptr %6, align 4
  ret void
}

; Function Attrs: mustprogress nounwind uwtable
define linkonce_odr dso_local void @_ZN6google8protobuf8internal20RepeatedPtrFieldBaseD2Ev(ptr noundef nonnull align 8 dereferenceable(24) %0) unnamed_addr #5 comdat align 2 {
  %2 = alloca ptr, align 8
  store ptr %0, ptr %2, align 8
  ret void
}

; Function Attrs: mustprogress nounwind uwtable
define linkonce_odr dso_local void @_ZN6google8protobuf8internal14ArenaStringPtr16UnsafeSetDefaultEPKNSt7__cxx1112basic_stringIcSt11char_traitsIcESaIcEEE(ptr noundef nonnull align 8 dereferenceable(8) %0, ptr noundef %1) #5 comdat align 2 {
  %3 = alloca ptr, align 8
  %4 = alloca ptr, align 8
  store ptr %0, ptr %3, align 8
  store ptr %1, ptr %4, align 8
  %5 = load ptr, ptr %3, align 8
  %6 = load ptr, ptr %4, align 8
  %7 = getelementptr inbounds %"struct.google::protobuf::internal::ArenaStringPtr", ptr %5, i32 0, i32 0
  store ptr %6, ptr %7, align 8
  ret void
}

; Function Attrs: mustprogress uwtable
define linkonce_odr dso_local noundef nonnull align 8 dereferenceable(32) ptr @_ZN6google8protobuf8internal27GetEmptyStringAlreadyInitedB5cxx11Ev() #4 comdat {
  %1 = call noundef nonnull align 8 dereferenceable(32) ptr @_ZNK6google8protobuf8internal21ExplicitlyConstructedINSt7__cxx1112basic_stringIcSt11char_traitsIcESaIcEEEE3getEv(ptr noundef nonnull align 8 dereferenceable(32) @_ZN6google8protobuf8internal26fixed_address_empty_stringB5cxx11E)
  ret ptr %1
}

; Function Attrs: mustprogress uwtable
define linkonce_odr dso_local void @_ZN6google8protobuf8internal7InitSCCEPNS1_11SCCInfoBaseE(ptr noundef %0) #4 comdat {
  %2 = alloca ptr, align 8
  %3 = alloca i32, align 4
  %4 = alloca i32, align 4
  %5 = alloca i32, align 4
  %6 = alloca ptr, align 8
  %7 = alloca i32, align 4
  store ptr %0, ptr %6, align 8
  %8 = load ptr, ptr %6, align 8
  %9 = getelementptr inbounds %"struct.google::protobuf::internal::SCCInfoBase", ptr %8, i32 0, i32 0
  store ptr %9, ptr %2, align 8
  store i32 2, ptr %3, align 4
  %10 = load ptr, ptr %2, align 8
  %11 = load i32, ptr %3, align 4
  %12 = call noundef i32 @_ZStanSt12memory_orderSt23__memory_order_modifier(i32 noundef %11, i32 noundef 65535)
  store i32 %12, ptr %4, align 4
  %13 = load i32, ptr %3, align 4
  switch i32 %13, label %14 [
    i32 1, label %16
    i32 2, label %16
    i32 5, label %18
  ]

14:                                               ; preds = %1
  %15 = load atomic i32, ptr %10 monotonic, align 4
  store i32 %15, ptr %5, align 4
  br label %20

16:                                               ; preds = %1, %1
  %17 = load atomic i32, ptr %10 acquire, align 4
  store i32 %17, ptr %5, align 4
  br label %20

18:                                               ; preds = %1
  %19 = load atomic i32, ptr %10 seq_cst, align 4
  store i32 %19, ptr %5, align 4
  br label %20

20:                                               ; preds = %18, %16, %14
  %21 = load i32, ptr %5, align 4
  store i32 %21, ptr %7, align 4
  %22 = load i32, ptr %7, align 4
  %23 = icmp ne i32 %22, 0
  br i1 %23, label %24, label %26

24:                                               ; preds = %20
  %25 = load ptr, ptr %6, align 8
  call void @_ZN6google8protobuf8internal11InitSCCImplEPNS1_11SCCInfoBaseE(ptr noundef %25)
  br label %26

26:                                               ; preds = %24, %20
  ret void
}

; Function Attrs: mustprogress nounwind uwtable
define linkonce_odr dso_local void @_ZN6google8protobuf8internal20RepeatedPtrFieldBaseC2EPNS0_5ArenaE(ptr noundef nonnull align 8 dereferenceable(24) %0, ptr noundef %1) unnamed_addr #5 comdat align 2 {
  %3 = alloca ptr, align 8
  %4 = alloca ptr, align 8
  store ptr %0, ptr %3, align 8
  store ptr %1, ptr %4, align 8
  %5 = load ptr, ptr %3, align 8
  %6 = getelementptr inbounds %"class.google::protobuf::internal::RepeatedPtrFieldBase", ptr %5, i32 0, i32 0
  %7 = load ptr, ptr %4, align 8
  store ptr %7, ptr %6, align 8
  %8 = getelementptr inbounds %"class.google::protobuf::internal::RepeatedPtrFieldBase", ptr %5, i32 0, i32 1
  store i32 0, ptr %8, align 8
  %9 = getelementptr inbounds %"class.google::protobuf::internal::RepeatedPtrFieldBase", ptr %5, i32 0, i32 2
  store i32 0, ptr %9, align 4
  %10 = getelementptr inbounds %"class.google::protobuf::internal::RepeatedPtrFieldBase", ptr %5, i32 0, i32 3
  store ptr null, ptr %10, align 8
  ret void
}

; Function Attrs: mustprogress nounwind uwtable
define linkonce_odr dso_local void @_ZNSt6atomicIiEC2Ei(ptr noundef nonnull align 4 dereferenceable(4) %0, i32 noundef %1) unnamed_addr #5 comdat align 2 {
  %3 = alloca ptr, align 8
  %4 = alloca i32, align 4
  store ptr %0, ptr %3, align 8
  store i32 %1, ptr %4, align 4
  %5 = load ptr, ptr %3, align 8
  %6 = load i32, ptr %4, align 4
  call void @_ZNSt13__atomic_baseIiEC2Ei(ptr noundef nonnull align 4 dereferenceable(4) %5, i32 noundef %6) #3
  ret void
}

; Function Attrs: mustprogress nounwind uwtable
define linkonce_odr dso_local void @_ZN6google8protobuf8internal16InternalMetadataC2EPNS0_5ArenaE(ptr noundef nonnull align 8 dereferenceable(8) %0, ptr noundef %1) unnamed_addr #5 comdat align 2 {
  %3 = alloca ptr, align 8
  %4 = alloca ptr, align 8
  store ptr %0, ptr %3, align 8
  store ptr %1, ptr %4, align 8
  %5 = load ptr, ptr %3, align 8
  %6 = getelementptr inbounds %"class.google::protobuf::internal::InternalMetadata", ptr %5, i32 0, i32 0
  %7 = load ptr, ptr %4, align 8
  store ptr %7, ptr %6, align 8
  ret void
}

; Function Attrs: mustprogress nounwind uwtable
define linkonce_odr dso_local void @_ZN6google8protobuf11MessageLiteD2Ev(ptr noundef nonnull align 8 dereferenceable(16) %0) unnamed_addr #5 comdat align 2 {
  %2 = alloca ptr, align 8
  store ptr %0, ptr %2, align 8
  ret void
}

; Function Attrs: mustprogress nounwind uwtable
define linkonce_odr dso_local void @_ZN6google8protobuf16RepeatedPtrFieldIN4i18n12phonenumbers12NumberFormatEED2Ev(ptr noundef nonnull align 8 dereferenceable(24) %0) unnamed_addr #5 comdat align 2 personality ptr @__gxx_personality_v0 {
  %2 = alloca ptr, align 8
  store ptr %0, ptr %2, align 8
  %3 = load ptr, ptr %2, align 8
  invoke void @_ZN6google8protobuf8internal20RepeatedPtrFieldBase7DestroyINS0_16RepeatedPtrFieldIN4i18n12phonenumbers12NumberFormatEE11TypeHandlerEEEvv(ptr noundef nonnull align 8 dereferenceable(24) %3)
          to label %4 unwind label %5

4:                                                ; preds = %1
  call void @_ZN6google8protobuf8internal20RepeatedPtrFieldBaseD2Ev(ptr noundef nonnull align 8 dereferenceable(24) %3) #3
  ret void

5:                                                ; preds = %1
  %6 = landingpad { ptr, i32 }
          catch ptr null
  %7 = extractvalue { ptr, i32 } %6, 0
  call void @__clang_call_terminate(ptr %7) #15
  unreachable
}

; Function Attrs: mustprogress nounwind uwtable
define linkonce_odr dso_local void @_ZN4i18n12phonenumbers13PhoneMetadata17RegisterArenaDtorEPN6google8protobuf5ArenaE(ptr noundef nonnull align 8 dereferenceable(280) %0, ptr noundef %1) #5 comdat align 2 {
  %3 = alloca ptr, align 8
  %4 = alloca ptr, align 8
  store ptr %0, ptr %3, align 8
  store ptr %1, ptr %4, align 8
  ret void
}

; Function Attrs: mustprogress uwtable
define linkonce_odr dso_local void @_ZN4i18n12phonenumbers13PhoneMetadata10SharedCtorEv(ptr noundef nonnull align 8 dereferenceable(280) %0) #4 comdat align 2 {
  %2 = alloca ptr, align 8
  store ptr %0, ptr %2, align 8
  %3 = load ptr, ptr %2, align 8
  call void @_ZN6google8protobuf8internal7InitSCCEPNS1_11SCCInfoBaseE(ptr noundef @scc_info_PhoneMetadata_phonemetadata_2eproto)
  %4 = getelementptr inbounds %"class.i18n::phonenumbers::PhoneMetadata", ptr %3, i32 0, i32 5
  %5 = call noundef nonnull align 8 dereferenceable(32) ptr @_ZN6google8protobuf8internal27GetEmptyStringAlreadyInitedB5cxx11Ev()
  call void @_ZN6google8protobuf8internal14ArenaStringPtr16UnsafeSetDefaultEPKNSt7__cxx1112basic_stringIcSt11char_traitsIcESaIcEEE(ptr noundef nonnull align 8 dereferenceable(8) %4, ptr noundef %5)
  %6 = getelementptr inbounds %"class.i18n::phonenumbers::PhoneMetadata", ptr %3, i32 0, i32 6
  %7 = call noundef nonnull align 8 dereferenceable(32) ptr @_ZN6google8protobuf8internal27GetEmptyStringAlreadyInitedB5cxx11Ev()
  call void @_ZN6google8protobuf8internal14ArenaStringPtr16UnsafeSetDefaultEPKNSt7__cxx1112basic_stringIcSt11char_traitsIcESaIcEEE(ptr noundef nonnull align 8 dereferenceable(8) %6, ptr noundef %7)
  %8 = getelementptr inbounds %"class.i18n::phonenumbers::PhoneMetadata", ptr %3, i32 0, i32 7
  %9 = call noundef nonnull align 8 dereferenceable(32) ptr @_ZN6google8protobuf8internal27GetEmptyStringAlreadyInitedB5cxx11Ev()
  call void @_ZN6google8protobuf8internal14ArenaStringPtr16UnsafeSetDefaultEPKNSt7__cxx1112basic_stringIcSt11char_traitsIcESaIcEEE(ptr noundef nonnull align 8 dereferenceable(8) %8, ptr noundef %9)
  %10 = getelementptr inbounds %"class.i18n::phonenumbers::PhoneMetadata", ptr %3, i32 0, i32 8
  %11 = call noundef nonnull align 8 dereferenceable(32) ptr @_ZN6google8protobuf8internal27GetEmptyStringAlreadyInitedB5cxx11Ev()
  call void @_ZN6google8protobuf8internal14ArenaStringPtr16UnsafeSetDefaultEPKNSt7__cxx1112basic_stringIcSt11char_traitsIcESaIcEEE(ptr noundef nonnull align 8 dereferenceable(8) %10, ptr noundef %11)
  %12 = getelementptr inbounds %"class.i18n::phonenumbers::PhoneMetadata", ptr %3, i32 0, i32 9
  %13 = call noundef nonnull align 8 dereferenceable(32) ptr @_ZN6google8protobuf8internal27GetEmptyStringAlreadyInitedB5cxx11Ev()
  call void @_ZN6google8protobuf8internal14ArenaStringPtr16UnsafeSetDefaultEPKNSt7__cxx1112basic_stringIcSt11char_traitsIcESaIcEEE(ptr noundef nonnull align 8 dereferenceable(8) %12, ptr noundef %13)
  %14 = getelementptr inbounds %"class.i18n::phonenumbers::PhoneMetadata", ptr %3, i32 0, i32 10
  %15 = call noundef nonnull align 8 dereferenceable(32) ptr @_ZN6google8protobuf8internal27GetEmptyStringAlreadyInitedB5cxx11Ev()
  call void @_ZN6google8protobuf8internal14ArenaStringPtr16UnsafeSetDefaultEPKNSt7__cxx1112basic_stringIcSt11char_traitsIcESaIcEEE(ptr noundef nonnull align 8 dereferenceable(8) %14, ptr noundef %15)
  %16 = getelementptr inbounds %"class.i18n::phonenumbers::PhoneMetadata", ptr %3, i32 0, i32 11
  %17 = call noundef nonnull align 8 dereferenceable(32) ptr @_ZN6google8protobuf8internal27GetEmptyStringAlreadyInitedB5cxx11Ev()
  call void @_ZN6google8protobuf8internal14ArenaStringPtr16UnsafeSetDefaultEPKNSt7__cxx1112basic_stringIcSt11char_traitsIcESaIcEEE(ptr noundef nonnull align 8 dereferenceable(8) %16, ptr noundef %17)
  %18 = getelementptr inbounds %"class.i18n::phonenumbers::PhoneMetadata", ptr %3, i32 0, i32 12
  %19 = call noundef nonnull align 8 dereferenceable(32) ptr @_ZN6google8protobuf8internal27GetEmptyStringAlreadyInitedB5cxx11Ev()
  call void @_ZN6google8protobuf8internal14ArenaStringPtr16UnsafeSetDefaultEPKNSt7__cxx1112basic_stringIcSt11char_traitsIcESaIcEEE(ptr noundef nonnull align 8 dereferenceable(8) %18, ptr noundef %19)
  %20 = getelementptr inbounds %"class.i18n::phonenumbers::PhoneMetadata", ptr %3, i32 0, i32 13
  %21 = getelementptr inbounds %"class.i18n::phonenumbers::PhoneMetadata", ptr %3, i32 0, i32 33
  %22 = getelementptr inbounds %"class.i18n::phonenumbers::PhoneMetadata", ptr %3, i32 0, i32 13
  %23 = ptrtoint ptr %21 to i64
  %24 = ptrtoint ptr %22 to i64
  %25 = sub i64 %23, %24
  %26 = add i64 %25, 1
  call void @llvm.memset.p0.i64(ptr align 8 %20, i8 0, i64 %26, i1 false)
  ret void
}

; Function Attrs: mustprogress uwtable
define linkonce_odr dso_local void @_ZN6google8protobuf16RepeatedPtrFieldIN4i18n12phonenumbers12NumberFormatEEC2EPNS0_5ArenaE(ptr noundef nonnull align 8 dereferenceable(24) %0, ptr noundef %1) unnamed_addr #4 comdat align 2 {
  %3 = alloca ptr, align 8
  %4 = alloca ptr, align 8
  store ptr %0, ptr %3, align 8
  store ptr %1, ptr %4, align 8
  %5 = load ptr, ptr %3, align 8
  %6 = load ptr, ptr %4, align 8
  call void @_ZN6google8protobuf8internal20RepeatedPtrFieldBaseC2EPNS0_5ArenaE(ptr noundef nonnull align 8 dereferenceable(24) %5, ptr noundef %6)
  ret void
}

; Function Attrs: mustprogress nounwind uwtable
define linkonce_odr dso_local void @_ZN6google8protobuf8internal10CachedSizeC2Ev(ptr noundef nonnull align 4 dereferenceable(4) %0) unnamed_addr #5 comdat align 2 {
  %2 = alloca ptr, align 8
  store ptr %0, ptr %2, align 8
  %3 = load ptr, ptr %2, align 8
  %4 = getelementptr inbounds %"class.google::protobuf::internal::CachedSize", ptr %3, i32 0, i32 0
  call void @_ZNSt6atomicIiEC2Ei(ptr noundef nonnull align 4 dereferenceable(4) %4, i32 noundef 0) #3
  ret void
}

; Function Attrs: mustprogress uwtable
define linkonce_odr dso_local void @_ZN6google8protobuf11MessageLiteC2EPNS0_5ArenaE(ptr noundef nonnull align 8 dereferenceable(16) %0, ptr noundef %1) unnamed_addr #4 comdat align 2 {
  %3 = alloca ptr, align 8
  %4 = alloca ptr, align 8
  store ptr %0, ptr %3, align 8
  store ptr %1, ptr %4, align 8
  %5 = load ptr, ptr %3, align 8
  store ptr getelementptr inbounds ({ [16 x ptr] }, ptr @_ZTVN6google8protobuf11MessageLiteE, i32 0, i32 0, i32 2), ptr %5, align 8
  %6 = getelementptr inbounds %"class.google::protobuf::MessageLite", ptr %5, i32 0, i32 1
  %7 = load ptr, ptr %4, align 8
  call void @_ZN6google8protobuf8internal16InternalMetadataC2EPNS0_5ArenaE(ptr noundef nonnull align 8 dereferenceable(8) %6, ptr noundef %7)
  ret void
}

; Function Attrs: mustprogress uwtable
define dso_local void @_ZN4i18n12phonenumbers13PhoneMetadataC2EPN6google8protobuf5ArenaE(ptr noundef nonnull align 8 dereferenceable(280) %0, ptr noundef %1) unnamed_addr #4 align 2 personality ptr @__gxx_personality_v0 {
  %3 = alloca ptr, align 8
  %4 = alloca ptr, align 8
  %5 = alloca ptr, align 8
  %6 = alloca ptr, align 8
  %7 = alloca ptr, align 8
  %8 = alloca i32, align 4
  store ptr %0, ptr %5, align 8
  store ptr %1, ptr %6, align 8
  %9 = load ptr, ptr %5, align 8
  %10 = load ptr, ptr %6, align 8
  call void @_ZN6google8protobuf11MessageLiteC2EPNS0_5ArenaE(ptr noundef nonnull align 8 dereferenceable(16) %9, ptr noundef %10)
  store ptr getelementptr inbounds ({ [16 x ptr] }, ptr @_ZTVN4i18n12phonenumbers13PhoneMetadataE, i32 0, i32 0, i32 2), ptr %9, align 8
  %11 = getelementptr inbounds %"class.i18n::phonenumbers::PhoneMetadata", ptr %9, i32 0, i32 1
  store ptr %11, ptr %4, align 8
  %12 = load ptr, ptr %4, align 8
  store ptr %12, ptr %3, align 8
  %13 = load ptr, ptr %3, align 8
  call void @llvm.memset.p0.i64(ptr align 4 %13, i8 0, i64 4, i1 false)
  br label %14

14:                                               ; preds = %2
  %15 = getelementptr inbounds %"class.i18n::phonenumbers::PhoneMetadata", ptr %9, i32 0, i32 2
  call void @_ZN6google8protobuf8internal10CachedSizeC2Ev(ptr noundef nonnull align 4 dereferenceable(4) %15) #3
  %16 = getelementptr inbounds %"class.i18n::phonenumbers::PhoneMetadata", ptr %9, i32 0, i32 3
  %17 = load ptr, ptr %6, align 8
  invoke void @_ZN6google8protobuf16RepeatedPtrFieldIN4i18n12phonenumbers12NumberFormatEEC2EPNS0_5ArenaE(ptr noundef nonnull align 8 dereferenceable(24) %16, ptr noundef %17)
          to label %18 unwind label %25

18:                                               ; preds = %14
  %19 = getelementptr inbounds %"class.i18n::phonenumbers::PhoneMetadata", ptr %9, i32 0, i32 4
  %20 = load ptr, ptr %6, align 8
  invoke void @_ZN6google8protobuf16RepeatedPtrFieldIN4i18n12phonenumbers12NumberFormatEEC2EPNS0_5ArenaE(ptr noundef nonnull align 8 dereferenceable(24) %19, ptr noundef %20)
          to label %21 unwind label %29

21:                                               ; preds = %18
  invoke void @_ZN4i18n12phonenumbers13PhoneMetadata10SharedCtorEv(ptr noundef nonnull align 8 dereferenceable(280) %9)
          to label %22 unwind label %33

22:                                               ; preds = %21
  %23 = load ptr, ptr %6, align 8
  invoke void @_ZN4i18n12phonenumbers13PhoneMetadata17RegisterArenaDtorEPN6google8protobuf5ArenaE(ptr noundef nonnull align 8 dereferenceable(280) %9, ptr noundef %23)
          to label %24 unwind label %33

24:                                               ; preds = %22
  ret void

25:                                               ; preds = %14
  %26 = landingpad { ptr, i32 }
          cleanup
  %27 = extractvalue { ptr, i32 } %26, 0
  store ptr %27, ptr %7, align 8
  %28 = extractvalue { ptr, i32 } %26, 1
  store i32 %28, ptr %8, align 4
  br label %38

29:                                               ; preds = %18
  %30 = landingpad { ptr, i32 }
          cleanup
  %31 = extractvalue { ptr, i32 } %30, 0
  store ptr %31, ptr %7, align 8
  %32 = extractvalue { ptr, i32 } %30, 1
  store i32 %32, ptr %8, align 4
  br label %37

33:                                               ; preds = %22, %21
  %34 = landingpad { ptr, i32 }
          cleanup
  %35 = extractvalue { ptr, i32 } %34, 0
  store ptr %35, ptr %7, align 8
  %36 = extractvalue { ptr, i32 } %34, 1
  store i32 %36, ptr %8, align 4
  call void @_ZN6google8protobuf16RepeatedPtrFieldIN4i18n12phonenumbers12NumberFormatEED2Ev(ptr noundef nonnull align 8 dereferenceable(24) %19) #3
  br label %37

37:                                               ; preds = %33, %29
  call void @_ZN6google8protobuf16RepeatedPtrFieldIN4i18n12phonenumbers12NumberFormatEED2Ev(ptr noundef nonnull align 8 dereferenceable(24) %16) #3
  br label %38

38:                                               ; preds = %37, %25
  call void @_ZN6google8protobuf11MessageLiteD2Ev(ptr noundef nonnull align 8 dereferenceable(16) %9) #3
  br label %39

39:                                               ; preds = %38
  %40 = load ptr, ptr %7, align 8
  %41 = load i32, ptr %8, align 4
  %42 = insertvalue { ptr, i32 } poison, ptr %40, 0
  %43 = insertvalue { ptr, i32 } %42, i32 %41, 1
  resume { ptr, i32 } %43
}