; Function Attrs: mustprogress uwtable
define dso_local void @_ZN4i18n12phonenumbers13PhoneMetadataC2EPN6google8protobuf5ArenaE(ptr noundef nonnull align 8 dereferenceable(280) %0, ptr noundef %1) unnamed_addr #3 align 2 personality ptr @__gxx_personality_v0 {
  %3 = getelementptr inbounds i8, ptr %0, i64 8
  store ptr %1, ptr %3, align 8
  store ptr getelementptr inbounds ({ [16 x ptr] }, ptr @_ZTVN4i18n12phonenumbers13PhoneMetadataE, i64 0, i32 0, i64 2), ptr %0, align 8
  %4 = getelementptr inbounds i8, ptr %0, i64 16
  store i32 0, ptr %4, align 8
  %5 = getelementptr inbounds i8, ptr %0, i64 20
  store i32 0, ptr %5, align 4
  %6 = getelementptr inbounds i8, ptr %0, i64 24
  store ptr %1, ptr %6, align 8
  %7 = getelementptr inbounds i8, ptr %0, i64 32
  tail call void @llvm.memset.p0.i64(ptr noundef nonnull align 8 dereferenceable(16) %7, i8 0, i64 16, i1 false)
  %8 = getelementptr inbounds i8, ptr %0, i64 48
  store ptr %1, ptr %8, align 8
  %9 = getelementptr inbounds i8, ptr %0, i64 56
  tail call void @llvm.memset.p0.i64(ptr noundef nonnull align 8 dereferenceable(16) %9, i8 0, i64 16, i1 false)
  %10 = load atomic i32, ptr @scc_info_PhoneMetadata_phonemetadata_2eproto acquire, align 8
  %.not.i.i = icmp eq i32 %10, 0
  br i1 %.not.i.i, label %12, label %11

11:                                               ; preds = %2
  invoke void @_ZN6google8protobuf8internal11InitSCCImplEPNS1_11SCCInfoBaseE(ptr noundef nonnull @scc_info_PhoneMetadata_phonemetadata_2eproto)
          to label %12 unwind label %22

12:                                               ; preds = %2, %11
  %13 = getelementptr inbounds i8, ptr %0, i64 72
  store ptr @_ZN6google8protobuf8internal26fixed_address_empty_stringB5cxx11E, ptr %13, align 8
  %14 = getelementptr inbounds i8, ptr %0, i64 80
  store ptr @_ZN6google8protobuf8internal26fixed_address_empty_stringB5cxx11E, ptr %14, align 8
  %15 = getelementptr inbounds i8, ptr %0, i64 88
  store ptr @_ZN6google8protobuf8internal26fixed_address_empty_stringB5cxx11E, ptr %15, align 8
  %16 = getelementptr inbounds i8, ptr %0, i64 96
  store ptr @_ZN6google8protobuf8internal26fixed_address_empty_stringB5cxx11E, ptr %16, align 8
  %17 = getelementptr inbounds i8, ptr %0, i64 104
  store ptr @_ZN6google8protobuf8internal26fixed_address_empty_stringB5cxx11E, ptr %17, align 8
  %18 = getelementptr inbounds i8, ptr %0, i64 112
  store ptr @_ZN6google8protobuf8internal26fixed_address_empty_stringB5cxx11E, ptr %18, align 8
  %19 = getelementptr inbounds i8, ptr %0, i64 120
  store ptr @_ZN6google8protobuf8internal26fixed_address_empty_stringB5cxx11E, ptr %19, align 8
  %20 = getelementptr inbounds i8, ptr %0, i64 128
  store ptr @_ZN6google8protobuf8internal26fixed_address_empty_stringB5cxx11E, ptr %20, align 8
  %21 = getelementptr inbounds i8, ptr %0, i64 136
  tail call void @llvm.memset.p0.i64(ptr noundef nonnull align 8 dereferenceable(143) %21, i8 0, i64 143, i1 false)
  ret void

22:                                               ; preds = %11
  %23 = landingpad { ptr, i32 }
          cleanup
  invoke void @_ZN6google8protobuf8internal20RepeatedPtrFieldBase7DestroyINS0_16RepeatedPtrFieldIN4i18n12phonenumbers12NumberFormatEE11TypeHandlerEEEvv(ptr noundef nonnull align 8 dereferenceable(24) %8)
          to label %_ZN6google8protobuf16RepeatedPtrFieldIN4i18n12phonenumbers12NumberFormatEED2Ev.exit unwind label %24

24:                                               ; preds = %22
  %25 = landingpad { ptr, i32 }
          catch ptr null
  %26 = extractvalue { ptr, i32 } %25, 0
  tail call void @__clang_call_terminate(ptr %26) #24
  unreachable

_ZN6google8protobuf16RepeatedPtrFieldIN4i18n12phonenumbers12NumberFormatEED2Ev.exit: ; preds = %22
  invoke void @_ZN6google8protobuf8internal20RepeatedPtrFieldBase7DestroyINS0_16RepeatedPtrFieldIN4i18n12phonenumbers12NumberFormatEE11TypeHandlerEEEvv(ptr noundef nonnull align 8 dereferenceable(24) %6)
          to label %_ZN6google8protobuf16RepeatedPtrFieldIN4i18n12phonenumbers12NumberFormatEED2Ev.exit12 unwind label %27

27:                                               ; preds = %_ZN6google8protobuf16RepeatedPtrFieldIN4i18n12phonenumbers12NumberFormatEED2Ev.exit
  %28 = landingpad { ptr, i32 }
          catch ptr null
  %29 = extractvalue { ptr, i32 } %28, 0
  tail call void @__clang_call_terminate(ptr %29) #24
  unreachable

_ZN6google8protobuf16RepeatedPtrFieldIN4i18n12phonenumbers12NumberFormatEED2Ev.exit12: ; preds = %_ZN6google8protobuf16RepeatedPtrFieldIN4i18n12phonenumbers12NumberFormatEED2Ev.exit
  resume { ptr, i32 } %23
}